; Function Attrs: mustprogress uwtable
define void @_ZN7xgboost3gbm24GPUDartInplacePredictIncENS_6common4SpanIfLm18446744073709551615EEES3_fmNS_6linalg10TensorViewIKfLi1EEEjj(i64 %0, ptr readnone captures(none) %1, i64 %2, ptr readnone captures(none) %3, float noundef %4, i64 noundef %5, ptr noundef readnone byval(%"class.xgboost::linalg::TensorView.163") align 8 captures(none) %6, i32 noundef %7, i32 noundef %8) local_unnamed_addr #4 personality ptr @__gxx_personality_v0 {
  %10 = alloca %"class.dmlc::LogMessageFatal", align 1
  call void @llvm.lifetime.start.p0(i64 1, ptr nonnull %10) #23
  %11 = call noundef nonnull align 8 dereferenceable(376) ptr @_ZN4dmlc15LogMessageFatal8GetEntryEv(ptr noundef nonnull align 1 dereferenceable(1) %10)
  call void @_ZN4dmlc15LogMessageFatal5Entry4InitEPKci(ptr noundef nonnull align 8 dereferenceable(376) %11, ptr noundef nonnull @.str.106, i32 noundef 168)
  %12 = invoke noundef nonnull align 8 dereferenceable(376) ptr @_ZN4dmlc15LogMessageFatal8GetEntryEv(ptr noundef nonnull align 1 dereferenceable(1) %10)
          to label %_ZN4dmlc15LogMessageFatal6streamB5cxx11Ev.exit.i unwind label %14

_ZN4dmlc15LogMessageFatal6streamB5cxx11Ev.exit.i: ; preds = %9
  %13 = invoke noundef nonnull align 8 dereferenceable(8) ptr @_ZSt16__ostream_insertIcSt11char_traitsIcEERSt13basic_ostreamIT_T0_ES6_PKS3_l(ptr noundef nonnull align 8 dereferenceable(8) %12, ptr noundef nonnull @.str.107, i64 noundef 46)
          to label %_ZN7xgboost6common16AssertGPUSupportEv.exit unwind label %14

14:                                               ; preds = %_ZN4dmlc15LogMessageFatal6streamB5cxx11Ev.exit.i, %9
  %15 = landingpad { ptr, i32 }
          cleanup
  invoke void @_ZN4dmlc15LogMessageFatalD2Ev(ptr noundef nonnull align 1 dereferenceable(1) %10)
          to label %16 unwind label %17

16:                                               ; preds = %14
  call void @llvm.lifetime.end.p0(i64 1, ptr nonnull %10) #23
  resume { ptr, i32 } %15

17:                                               ; preds = %14
  %18 = landingpad { ptr, i32 }
          catch ptr null
  %19 = extractvalue { ptr, i32 } %18, 0
  call void @__clang_call_terminate(ptr %19) #38
  unreachable

_ZN7xgboost6common16AssertGPUSupportEv.exit:      ; preds = %_ZN4dmlc15LogMessageFatal6streamB5cxx11Ev.exit.i
  call void @_ZN4dmlc15LogMessageFatalD2Ev(ptr noundef nonnull align 1 dereferenceable(1) %10)
  call void @llvm.lifetime.end.p0(i64 1, ptr nonnull %10) #23
  ret void
}